target datalayout = "e-m:e-p270:32:32-p271:32:32-p272:64:64-i64:64-i128:128-f80:128-n8:16:32:64-S128"
target triple = "x86_64-pc-linux-gnu"

%struct.AVFormatContext = type { ptr, ptr, ptr, ptr, ptr, i32, i32, ptr, i32, ptr, i32, ptr, ptr, i64, i64, i64, i32, i32, i32, i64, i64, ptr, i32, i32, ptr, i32, i32, i32, i32, ptr, i64, i32, i32, %struct.AVIOInterruptCB, i32, i32, i32, i32, i64, i32, i32, i32, i32, i32, i32, i32, i32, i32, i32, i32, i32, i64, i32, i32, i32, i32, i32, ptr, ptr, ptr, ptr, i32, ptr, ptr, ptr, ptr, i32, ptr, ptr, i64, ptr, ptr, ptr, i64 }
%struct.AVIOInterruptCB = type { ptr, ptr }
%struct.VariantStream = type { i32, i32, i64, ptr, ptr, ptr, ptr, i32, i32, ptr, ptr, ptr, ptr, i32, i32, i32, i32, double, i64, i64, i64, i64, i64, double, i64, i64, i32, i32, i32, i32, i64, double, i64, i64, ptr, ptr, ptr, ptr, ptr, ptr, ptr, ptr, double, [4096 x i8], ptr, ptr, i32, [4097 x i8], [4097 x i8], [33 x i8], [33 x i8], ptr, [128 x i8], i32, i32, i32, i32, ptr, ptr, ptr, ptr, ptr, ptr }

; Function Attrs: nounwind uwtable
define internal i32 @flush_dynbuf(ptr noundef %0, ptr noundef %1) #0 {
  %3 = alloca i32, align 4
  %4 = alloca ptr, align 8
  %5 = alloca ptr, align 8
  %6 = alloca ptr, align 8
  %7 = alloca i32, align 4
  store ptr %0, ptr %4, align 8, !tbaa !28
  store ptr %1, ptr %5, align 8, !tbaa !162
  call void @llvm.lifetime.start.p0(i64 8, ptr %6) #15
  %8 = load ptr, ptr %4, align 8, !tbaa !28
  %9 = getelementptr inbounds nuw %struct.VariantStream, ptr %8, i32 0, i32 11
  %10 = load ptr, ptr %9, align 8, !tbaa !35
  store ptr %10, ptr %6, align 8, !tbaa !4
  %11 = load ptr, ptr %6, align 8, !tbaa !4
  %12 = getelementptr inbounds nuw %struct.AVFormatContext, ptr %11, i32 0, i32 4
  %13 = load ptr, ptr %12, align 8, !tbaa !97
  %14 = icmp ne ptr %13, null
  br i1 %14, label %16, label %15

15:                                               ; preds = %2
  store i32 -22, ptr %3, align 4
  store i32 1, ptr %7, align 4
  br label %42

16:                                               ; preds = %2
  %17 = load ptr, ptr %6, align 8, !tbaa !4
  %18 = call i32 @av_write_frame(ptr noundef %17, ptr noundef null)
  %19 = load ptr, ptr %6, align 8, !tbaa !4
  %20 = getelementptr inbounds nuw %struct.AVFormatContext, ptr %19, i32 0, i32 4
  %21 = load ptr, ptr %20, align 8, !tbaa !97
  %22 = load ptr, ptr %4, align 8, !tbaa !28
  %23 = getelementptr inbounds nuw %struct.VariantStream, ptr %22, i32 0, i32 9
  %24 = call i32 @avio_close_dyn_buf(ptr noundef %21, ptr noundef %23)
  %25 = load ptr, ptr %5, align 8, !tbaa !162
  store i32 %24, ptr %25, align 4, !tbaa !30
  %26 = load ptr, ptr %6, align 8, !tbaa !4
  %27 = getelementptr inbounds nuw %struct.AVFormatContext, ptr %26, i32 0, i32 4
  store ptr null, ptr %27, align 8, !tbaa !97
  %28 = load ptr, ptr %4, align 8, !tbaa !28
  %29 = getelementptr inbounds nuw %struct.VariantStream, ptr %28, i32 0, i32 5
  %30 = load ptr, ptr %29, align 8, !tbaa !102
  %31 = load ptr, ptr %4, align 8, !tbaa !28
  %32 = getelementptr inbounds nuw %struct.VariantStream, ptr %31, i32 0, i32 9
  %33 = load ptr, ptr %32, align 8, !tbaa !164
  %34 = load ptr, ptr %5, align 8, !tbaa !162
  %35 = load i32, ptr %34, align 4, !tbaa !30
  call void @avio_write(ptr noundef %30, ptr noundef %33, i32 noundef %35)
  %36 = load ptr, ptr %4, align 8, !tbaa !28
  %37 = getelementptr inbounds nuw %struct.VariantStream, ptr %36, i32 0, i32 5
  %38 = load ptr, ptr %37, align 8, !tbaa !102
  call void @avio_flush(ptr noundef %38)
  %39 = load ptr, ptr %6, align 8, !tbaa !4
  %40 = getelementptr inbounds nuw %struct.AVFormatContext, ptr %39, i32 0, i32 4
  %41 = call i32 @avio_open_dyn_buf(ptr noundef %40)
  store i32 %41, ptr %3, align 4
  store i32 1, ptr %7, align 4
  br label %42

42:                                               ; preds = %16, %15
  call void @llvm.lifetime.end.p0(i64 8, ptr %6) #15
  %43 = load i32, ptr %3, align 4
  ret i32 %43
}