; Function Attrs: nounwind uwtable
define internal fastcc i32 @flush_dynbuf(ptr noundef %0, ptr noundef nonnull writeonly captures(none) %1) unnamed_addr #0 {
  %3 = getelementptr inbounds nuw i8, ptr %0, i64 72
  %4 = load ptr, ptr %3, align 8, !tbaa !29
  %5 = getelementptr inbounds nuw i8, ptr %4, i64 32
  %6 = load ptr, ptr %5, align 8, !tbaa !89
  %.not = icmp eq ptr %6, null
  br i1 %.not, label %17, label %7

7:                                                ; preds = %2
  %8 = tail call i32 @av_write_frame(ptr noundef nonnull %4, ptr noundef null) #17
  %9 = load ptr, ptr %5, align 8, !tbaa !89
  %10 = getelementptr inbounds nuw i8, ptr %0, i64 56
  %11 = tail call i32 @avio_close_dyn_buf(ptr noundef %9, ptr noundef nonnull %10) #17
  store i32 %11, ptr %1, align 4, !tbaa !65
  store ptr null, ptr %5, align 8, !tbaa !89
  %12 = getelementptr inbounds nuw i8, ptr %0, i64 32
  %13 = load ptr, ptr %12, align 8, !tbaa !94
  %14 = load ptr, ptr %10, align 8, !tbaa !99
  tail call void @avio_write(ptr noundef %13, ptr noundef %14, i32 noundef %11) #17
  %15 = load ptr, ptr %12, align 8, !tbaa !94
  tail call void @avio_flush(ptr noundef %15) #17
  %16 = tail call i32 @avio_open_dyn_buf(ptr noundef nonnull %5) #17
  br label %17

17:                                               ; preds = %2, %7
  %.0 = phi i32 [ %16, %7 ], [ -22, %2 ]
  ret i32 %.0
}